
Memory Configuration

Name             Origin             Length             Attributes
*default*        0x0000000000000000 0xffffffffffffffff

Linker script and memory map

                0x0000000000080000                . = 0x80000
                0x0000000000080000                _text_boot = .

.text.boot      0x0000000000080000       0x80
 *(.text.boot)
 .text.boot     0x0000000000080000       0x80 build/boot_s.o
                0x0000000000080000                _start
                0x0000000000080080                _etext_boot = .
                0x0000000000080080                _text = .

.text           0x0000000000080800     0x4058
 *(.text)
 .text          0x0000000000080800     0x11a0 build/printk_c.o
                0x0000000000080c58                myprintf
                0x00000000000817c0                printk_init
                0x0000000000081848                printk
 .text          0x00000000000819a0      0x1d4 build/init_c.o
                0x0000000000081ad8                bad_mode
                0x0000000000081b28                kernel_main
 .text          0x0000000000081b74       0x18 build/irq_c.o
                0x0000000000081b74                irq_handle
 .text          0x0000000000081b8c      0x8bc build/mm_c.o
                0x0000000000081d7c                pmd_set_section
                0x0000000000082404                setup_arch
 .text          0x0000000000082448      0x144 build/alloc_c.o
                0x0000000000082448                mem_init
                0x00000000000824ec                alloc_page
                0x0000000000082560                free_page
 .text          0x000000000008258c      0x260 build/pl_uart_c.o
                0x000000000008258c                uart_send
                0x00000000000825dc                uart_recv
                0x0000000000082624                uart_send_string
                0x0000000000082680                uart_init
                0x00000000000827b8                putchar
 .text          0x00000000000827ec      0x5f4 build/gic_c.o
                0x00000000000828ac                gicv2_mask_irq
                0x00000000000828d0                gicv2_unmask_irq
                0x0000000000082b78                gic_cpu_init
                0x0000000000082c50                gic_handle_irq
                0x0000000000082d04                gic_init
 .text          0x0000000000082de0      0x230 build/memset_c.o
                0x0000000000082fe4                memset
 .text          0x0000000000083010       0xa8 build/string_c.o
                0x0000000000083010                strlen
                0x0000000000083054                memcpy
 .text          0x00000000000830b8      0x190 build/timer_c.o
                0x00000000000830e4                local_timer_init
                0x0000000000083114                system_timer_init
                0x0000000000083198                handle_timer_irq
                0x00000000000831c8                handle_stimer_irq
 *fill*         0x0000000000083248      0x5b8 
 .text          0x0000000000083800     0x1030 build/entry_s.o
                0x0000000000084000                vectors
                0x0000000000084806                trigger_alignment
 .text          0x0000000000084830       0x10 build/mm_s.o
                0x0000000000084830                memzero
 .text          0x0000000000084840       0x18 build/memset_asm_s.o
                0x0000000000084840                __memset_16bytes
 .text          0x0000000000084858        0x0 build/boot_s.o
                0x0000000000084858                _etext = .
                0x0000000000084858                _rodata = .

.iplt           0x0000000000084858        0x0
 .iplt          0x0000000000084858        0x0 build/printk_c.o

.rodata         0x0000000000084858      0x2f8
 *(.rodata)
 .rodata        0x0000000000084858       0x57 build/printk_c.o
 *fill*         0x00000000000848af        0x1 
 .rodata        0x00000000000848b0      0x185 build/init_c.o
 *fill*         0x0000000000084a35        0x3 
 .rodata        0x0000000000084a38       0x44 build/mm_c.o
 *fill*         0x0000000000084a7c        0x4 
 .rodata        0x0000000000084a80       0x27 build/alloc_c.o
 *fill*         0x0000000000084aa7        0x1 
 .rodata        0x0000000000084aa8       0x61 build/gic_c.o
 *fill*         0x0000000000084b09        0x7 
 .rodata        0x0000000000084b10       0x40 build/timer_c.o
                0x0000000000084b50                _erodata = .
                0x0000000000084b50                _data = .

.eh_frame       0x0000000000084b50      0x69c
 .eh_frame      0x0000000000084b50       0xb0 build/printk_c.o
 .eh_frame      0x0000000000084c00       0x58 build/init_c.o
                                         0x70 (size before relaxing)
 .eh_frame      0x0000000000084c58       0x20 build/irq_c.o
                                         0x38 (size before relaxing)
 .eh_frame      0x0000000000084c78      0x210 build/mm_c.o
                                        0x228 (size before relaxing)
 .eh_frame      0x0000000000084e88       0x50 build/alloc_c.o
                                         0x68 (size before relaxing)
 .eh_frame      0x0000000000084ed8       0x88 build/pl_uart_c.o
                                         0xa0 (size before relaxing)
 .eh_frame      0x0000000000084f60      0x140 build/gic_c.o
                                        0x158 (size before relaxing)
 .eh_frame      0x00000000000850a0       0x70 build/memset_c.o
                                         0x88 (size before relaxing)
 .eh_frame      0x0000000000085110       0x30 build/string_c.o
                                         0x48 (size before relaxing)
 .eh_frame      0x0000000000085140       0xac build/timer_c.o
                                         0xc0 (size before relaxing)

.rela.dyn       0x00000000000851f0        0x0
 .rela.iplt     0x00000000000851f0        0x0 build/printk_c.o
 .rela.got      0x00000000000851f0        0x0 build/printk_c.o
 .rela.text.boot
                0x00000000000851f0        0x0 build/printk_c.o

.data           0x00000000000851ec        0x8
 *(.data)
 .data          0x00000000000851ec        0x0 build/printk_c.o
 .data          0x00000000000851ec        0x0 build/init_c.o
 .data          0x00000000000851ec        0x0 build/irq_c.o
 .data          0x00000000000851ec        0x0 build/mm_c.o
 .data          0x00000000000851ec        0x0 build/alloc_c.o
 .data          0x00000000000851ec        0x0 build/pl_uart_c.o
 .data          0x00000000000851ec        0x0 build/gic_c.o
 .data          0x00000000000851ec        0x0 build/memset_c.o
 .data          0x00000000000851ec        0x0 build/string_c.o
 .data          0x00000000000851ec        0x8 build/timer_c.o
 .data          0x00000000000851f4        0x0 build/entry_s.o
 .data          0x00000000000851f4        0x0 build/mm_s.o
 .data          0x00000000000851f4        0x0 build/memset_asm_s.o
 .data          0x00000000000851f4        0x0 build/boot_s.o

.data.rel.local
                0x00000000000851f8        0x8
 .data.rel.local
                0x00000000000851f8        0x8 build/printk_c.o

.igot.plt       0x0000000000085200        0x0
 .igot.plt      0x0000000000085200        0x0 build/printk_c.o

.got            0x0000000000085200       0x60
 .got           0x0000000000085200       0x60 build/printk_c.o
                0x0000000000085200                _GLOBAL_OFFSET_TABLE_

.got.plt        0x0000000000085260       0x18
 .got.plt       0x0000000000085260       0x18 build/printk_c.o

.data.rel.ro.local
                0x0000000000085278       0x20
 .data.rel.ro.local
                0x0000000000085278       0x20 build/init_c.o
                0x0000000000086000                . = ALIGN (0x1000)
                0x0000000000086000                idmap_pg_dir = .
                0x0000000000087000                . = (. + 0x1000)
                0x0000000000087000                _edata = .
                0x0000000000087000                . = ALIGN (0x8)
                0x0000000000087000                _bss = .

.bss            0x0000000000087000    0x60444
 *(.bss*)
 .bss           0x0000000000087000    0x20410 build/printk_c.o
 .bss           0x00000000000a7410        0x0 build/init_c.o
 .bss           0x00000000000a7410        0x0 build/irq_c.o
 .bss           0x00000000000a7410        0x0 build/mm_c.o
 .bss           0x00000000000a7410    0x40008 build/alloc_c.o
 .bss           0x00000000000e7418        0x0 build/pl_uart_c.o
 .bss           0x00000000000e7418       0x28 build/gic_c.o
 .bss           0x00000000000e7440        0x0 build/memset_c.o
 .bss           0x00000000000e7440        0x0 build/string_c.o
 .bss           0x00000000000e7440        0x4 build/timer_c.o
 .bss           0x00000000000e7444        0x0 build/entry_s.o
 .bss           0x00000000000e7444        0x0 build/mm_s.o
 .bss           0x00000000000e7444        0x0 build/memset_asm_s.o
 .bss           0x00000000000e7444        0x0 build/boot_s.o
                0x00000000000e7444                _ebss = .
                0x00000000000e8000                . = ALIGN (0x1000)
                0x00000000000e8000                init_pg_dir = .
                0x00000000000e9000                . = (. + 0x1000)
LOAD build/printk_c.o
LOAD build/init_c.o
LOAD build/irq_c.o
LOAD build/mm_c.o
LOAD build/alloc_c.o
LOAD build/pl_uart_c.o
LOAD build/gic_c.o
LOAD build/memset_c.o
LOAD build/string_c.o
LOAD build/timer_c.o
LOAD build/entry_s.o
LOAD build/mm_s.o
LOAD build/memset_asm_s.o
LOAD build/boot_s.o
OUTPUT(build/aarch_test.elf elf64-littleaarch64)
LOAD linker stubs

.debug_info     0x0000000000000000     0x20b6
 .debug_info    0x0000000000000000      0x483 build/printk_c.o
 .debug_info    0x0000000000000483      0x215 build/init_c.o
 .debug_info    0x0000000000000698       0x56 build/irq_c.o
 .debug_info    0x00000000000006ee      0x9cb build/mm_c.o
 .debug_info    0x00000000000010b9      0x135 build/alloc_c.o
 .debug_info    0x00000000000011ee      0x323 build/pl_uart_c.o
 .debug_info    0x0000000000001511      0x5fd build/gic_c.o
 .debug_info    0x0000000000001b0e      0x215 build/memset_c.o
 .debug_info    0x0000000000001d23      0x108 build/string_c.o
 .debug_info    0x0000000000001e2b      0x1d3 build/timer_c.o
 .debug_info    0x0000000000001ffe       0x2e build/entry_s.o
 .debug_info    0x000000000000202c       0x2e build/mm_s.o
 .debug_info    0x000000000000205a       0x2e build/memset_asm_s.o
 .debug_info    0x0000000000002088       0x2e build/boot_s.o

.debug_abbrev   0x0000000000000000      0xaeb
 .debug_abbrev  0x0000000000000000      0x1a5 build/printk_c.o
 .debug_abbrev  0x00000000000001a5      0x141 build/init_c.o
 .debug_abbrev  0x00000000000002e6       0x39 build/irq_c.o
 .debug_abbrev  0x000000000000031f      0x1df build/mm_c.o
 .debug_abbrev  0x00000000000004fe       0xd4 build/alloc_c.o
 .debug_abbrev  0x00000000000005d2       0xea build/pl_uart_c.o
 .debug_abbrev  0x00000000000006bc      0x150 build/gic_c.o
 .debug_abbrev  0x000000000000080c       0xfb build/memset_c.o
 .debug_abbrev  0x0000000000000907       0xb7 build/string_c.o
 .debug_abbrev  0x00000000000009be       0xdd build/timer_c.o
 .debug_abbrev  0x0000000000000a9b       0x14 build/entry_s.o
 .debug_abbrev  0x0000000000000aaf       0x14 build/mm_s.o
 .debug_abbrev  0x0000000000000ac3       0x14 build/memset_asm_s.o
 .debug_abbrev  0x0000000000000ad7       0x14 build/boot_s.o

.debug_aranges  0x0000000000000000      0x2a0
 .debug_aranges
                0x0000000000000000       0x30 build/printk_c.o
 .debug_aranges
                0x0000000000000030       0x30 build/init_c.o
 .debug_aranges
                0x0000000000000060       0x30 build/irq_c.o
 .debug_aranges
                0x0000000000000090       0x30 build/mm_c.o
 .debug_aranges
                0x00000000000000c0       0x30 build/alloc_c.o
 .debug_aranges
                0x00000000000000f0       0x30 build/pl_uart_c.o
 .debug_aranges
                0x0000000000000120       0x30 build/gic_c.o
 .debug_aranges
                0x0000000000000150       0x30 build/memset_c.o
 .debug_aranges
                0x0000000000000180       0x30 build/string_c.o
 .debug_aranges
                0x00000000000001b0       0x30 build/timer_c.o
 .debug_aranges
                0x00000000000001e0       0x30 build/entry_s.o
 .debug_aranges
                0x0000000000000210       0x30 build/mm_s.o
 .debug_aranges
                0x0000000000000240       0x30 build/memset_asm_s.o
 .debug_aranges
                0x0000000000000270       0x30 build/boot_s.o

.debug_line     0x0000000000000000      0xf6e
 .debug_line    0x0000000000000000      0x4e5 build/printk_c.o
 .debug_line    0x00000000000004e5       0x9f build/init_c.o
 .debug_line    0x0000000000000584       0x43 build/irq_c.o
 .debug_line    0x00000000000005c7      0x2db build/mm_c.o
 .debug_line    0x00000000000008a2       0x99 build/alloc_c.o
 .debug_line    0x000000000000093b       0xe0 build/pl_uart_c.o
 .debug_line    0x0000000000000a1b      0x1be build/gic_c.o
 .debug_line    0x0000000000000bd9      0x100 build/memset_c.o
 .debug_line    0x0000000000000cd9       0x99 build/string_c.o
 .debug_line    0x0000000000000d72       0x87 build/timer_c.o
 .debug_line    0x0000000000000df9       0x9e build/entry_s.o
 .debug_line    0x0000000000000e97       0x3d build/mm_s.o
 .debug_line    0x0000000000000ed4       0x47 build/memset_asm_s.o
 .debug_line    0x0000000000000f1b       0x53 build/boot_s.o

.debug_str      0x0000000000000000      0x7e7
 .debug_str     0x0000000000000000      0x210 build/printk_c.o
                                        0x266 (size before relaxing)
 .debug_str     0x0000000000000210       0xa5 build/init_c.o
                                        0x1b9 (size before relaxing)
 .debug_str     0x00000000000002b5       0x15 build/irq_c.o
                                        0x114 (size before relaxing)
 .debug_str     0x00000000000002ca      0x22a build/mm_c.o
                                        0x374 (size before relaxing)
 .debug_str     0x00000000000004f4       0x5e build/alloc_c.o
                                        0x16e (size before relaxing)
 .debug_str     0x0000000000000552       0x4e build/pl_uart_c.o
                                        0x140 (size before relaxing)
 .debug_str     0x00000000000005a0      0x10e build/gic_c.o
                                        0x23e (size before relaxing)
 .debug_str     0x00000000000006ae       0x53 build/memset_c.o
                                        0x170 (size before relaxing)
 .debug_str     0x0000000000000701       0x20 build/string_c.o
                                        0x11f (size before relaxing)
 .debug_str     0x0000000000000721       0x89 build/timer_c.o
                                        0x188 (size before relaxing)
 .debug_str     0x00000000000007aa       0x18 build/entry_s.o
                                         0x30 (size before relaxing)
 .debug_str     0x00000000000007c2        0x9 build/mm_s.o
                                         0x2d (size before relaxing)
 .debug_str     0x00000000000007cb       0x11 build/memset_asm_s.o
                                         0x35 (size before relaxing)
 .debug_str     0x00000000000007dc        0xb build/boot_s.o
                                         0x2f (size before relaxing)

.comment        0x0000000000000000       0x2b
 .comment       0x0000000000000000       0x2b build/printk_c.o
                                         0x2c (size before relaxing)
 .comment       0x000000000000002b       0x2c build/init_c.o
 .comment       0x000000000000002b       0x2c build/irq_c.o
 .comment       0x000000000000002b       0x2c build/mm_c.o
 .comment       0x000000000000002b       0x2c build/alloc_c.o
 .comment       0x000000000000002b       0x2c build/pl_uart_c.o
 .comment       0x000000000000002b       0x2c build/gic_c.o
 .comment       0x000000000000002b       0x2c build/memset_c.o
 .comment       0x000000000000002b       0x2c build/string_c.o
 .comment       0x000000000000002b       0x2c build/timer_c.o

.note.GNU-stack
                0x0000000000000000        0x0
 .note.GNU-stack
                0x0000000000000000        0x0 build/printk_c.o
 .note.GNU-stack
                0x0000000000000000        0x0 build/init_c.o
 .note.GNU-stack
                0x0000000000000000        0x0 build/irq_c.o
 .note.GNU-stack
                0x0000000000000000        0x0 build/mm_c.o
 .note.GNU-stack
                0x0000000000000000        0x0 build/alloc_c.o
 .note.GNU-stack
                0x0000000000000000        0x0 build/pl_uart_c.o
 .note.GNU-stack
                0x0000000000000000        0x0 build/gic_c.o
 .note.GNU-stack
                0x0000000000000000        0x0 build/memset_c.o
 .note.GNU-stack
                0x0000000000000000        0x0 build/string_c.o
 .note.GNU-stack
                0x0000000000000000        0x0 build/timer_c.o
